Certificate:
    Data:
        Version: 3 (0x2)
        Serial Number: 1 (0x1)
        Signature Algorithm: sha256WithRSAEncryption
        Issuer: C=CN, ST=BJ, L=BJ, O=YYP, OU=yyp, CN=YYP Root CA/emailAddress=877696729@qq.com
        Validity
            Not Before: May 29 06:39:14 2020 GMT
            Not After : May 27 06:39:14 2030 GMT
        Subject: C=CN, ST=BJ, O=YYP, OU=yyp, CN=server/emailAddress=877696729@qq.com
        Subject Public Key Info:
            Public Key Algorithm: rsaEncryption
                RSA Public-Key: (2048 bit)
                Modulus:
                    00:bf:d9:fe:76:09:1d:e9:2b:5f:79:ac:ac:42:a8:
                    9f:d1:f0:fc:e3:8d:9b:68:40:91:89:29:a7:78:26:
                    e6:2f:4e:f5:a5:45:9d:3c:e3:e5:d2:f3:ef:ef:56:
                    59:c6:86:ab:02:df:4f:0a:38:8d:ed:72:9d:f2:6c:
                    71:d4:e4:5d:be:3b:7d:09:a4:92:9e:1d:31:a4:da:
                    4f:d4:eb:b7:ce:86:6b:89:e5:da:a7:9a:d8:15:ea:
                    f3:d6:cc:2e:29:3b:32:7a:15:1d:62:7d:77:a0:54:
                    fd:92:56:e2:cd:fe:49:6a:71:b8:a5:82:ec:40:38:
                    70:80:d3:08:99:76:bf:d5:7e:c3:ba:72:41:ab:cc:
                    10:9c:6c:6a:c2:18:5a:fd:79:7e:03:b0:e2:7c:e5:
                    50:62:b6:2f:57:a7:0f:f4:d2:fb:bc:74:11:64:67:
                    a0:b3:5d:77:14:0c:83:bc:63:76:af:ff:cf:25:84:
                    c5:e6:61:e4:a5:46:40:6e:8e:3a:c4:34:03:8e:f7:
                    a8:00:fc:3b:2e:a6:18:88:0c:eb:26:15:f9:20:8a:
                    14:5e:de:24:3a:7e:27:63:05:39:0e:71:84:a3:91:
                    cd:57:52:cb:24:38:e2:80:e7:fb:5d:d6:d3:55:76:
                    4d:a4:ec:f9:d0:77:c2:d6:e1:23:58:9d:83:08:5d:
                    44:f9
                Exponent: 65537 (0x10001)
        X509v3 extensions:
            X509v3 Basic Constraints: 
                CA:FALSE
            Netscape Comment: 
                OpenSSL Generated Certificate
            X509v3 Subject Key Identifier: 
                9E:FC:E5:05:2C:96:4B:E8:9A:67:73:79:28:C2:A3:46:AE:97:B5:1D
            X509v3 Authority Key Identifier: 
                keyid:6E:90:75:48:5E:D3:C0:2B:29:67:89:C4:E3:D0:48:53:D0:28:A3:E8

    Signature Algorithm: sha256WithRSAEncryption
         81:83:2f:8b:8c:74:47:02:07:40:fe:1d:72:41:5c:31:86:5d:
         ed:4c:2c:80:87:ed:52:8d:5f:09:77:05:8d:5b:89:02:f4:2e:
         8a:da:1a:d4:89:ea:f1:d0:a2:23:3d:be:49:d8:1a:45:b0:80:
         ba:f6:30:d0:00:f1:68:71:2f:c9:cd:3f:93:a0:4b:67:71:88:
         e4:13:99:0a:0b:91:71:df:fa:b8:e3:31:c6:44:dd:56:72:af:
         5c:36:d3:a9:e1:1a:f2:69:9a:6a:59:29:39:13:9e:ab:53:5c:
         eb:2e:a6:45:dd:0b:33:5f:74:6a:26:e2:0d:36:47:3e:a6:10:
         b5:91:ed:ec:4a:ac:5c:21:ee:ac:cc:a0:3b:c2:7c:a1:e0:ea:
         ba:89:a9:4d:2b:c4:6c:f0:91:72:79:4f:b7:ce:ce:ed:30:7b:
         89:42:81:b1:42:ad:d9:c3:01:c1:58:2c:66:de:31:d4:73:c0:
         79:70:53:05:08:29:cd:39:9d:f9:81:5d:13:c5:e5:db:50:7c:
         f6:33:9c:2b:8a:c1:6c:9f:86:32:d8:30:20:53:b2:bf:a0:9a:
         b3:69:4b:1b:9e:b9:71:d5:7f:c3:10:4a:57:a7:9f:9e:04:74:
         af:ed:93:e6:9e:d0:c0:a9:43:3f:80:cb:59:88:11:51:42:64:
         bc:e4:7a:6d
-----BEGIN CERTIFICATE-----
MIID2DCCAsCgAwIBAgIBATANBgkqhkiG9w0BAQsFADB6MQswCQYDVQQGEwJDTjEL
MAkGA1UECAwCQkoxCzAJBgNVBAcMAkJKMQwwCgYDVQQKDANZWVAxDDAKBgNVBAsM
A3l5cDEUMBIGA1UEAwwLWVlQIFJvb3QgQ0ExHzAdBgkqhkiG9w0BCQEWEDg3NzY5
NjcyOUBxcS5jb20wHhcNMjAwNTI5MDYzOTE0WhcNMzAwNTI3MDYzOTE0WjBoMQsw
CQYDVQQGEwJDTjELMAkGA1UECAwCQkoxDDAKBgNVBAoMA1lZUDEMMAoGA1UECwwD
eXlwMQ8wDQYDVQQDDAZzZXJ2ZXIxHzAdBgkqhkiG9w0BCQEWEDg3NzY5NjcyOUBx
cS5jb20wggEiMA0GCSqGSIb3DQEBAQUAA4IBDwAwggEKAoIBAQC/2f52CR3pK195
rKxCqJ/R8PzjjZtoQJGJKad4JuYvTvWlRZ084+XS8+/vVlnGhqsC308KOI3tcp3y
bHHU5F2+O30JpJKeHTGk2k/U67fOhmuJ5dqnmtgV6vPWzC4pOzJ6FR1ifXegVP2S
VuLN/klqcbilguxAOHCA0wiZdr/VfsO6ckGrzBCcbGrCGFr9eX4DsOJ85VBiti9X
pw/00vu8dBFkZ6CzXXcUDIO8Y3av/88lhMXmYeSlRkBujjrENAOO96gA/DsuphiI
DOsmFfkgihRe3iQ6fidjBTkOcYSjkc1XUsskOOKA5/td1tNVdk2k7PnQd8LW4SNY
nYMIXUT5AgMBAAGjezB5MAkGA1UdEwQCMAAwLAYJYIZIAYb4QgENBB8WHU9wZW5T
U0wgR2VuZXJhdGVkIENlcnRpZmljYXRlMB0GA1UdDgQWBBSe/OUFLJZL6Jpnc3ko
wqNGrpe1HTAfBgNVHSMEGDAWgBRukHVIXtPAKylnicTj0EhT0Cij6DANBgkqhkiG
9w0BAQsFAAOCAQEAgYMvi4x0RwIHQP4dckFcMYZd7UwsgIftUo1fCXcFjVuJAvQu
itoa1Inq8dCiIz2+SdgaRbCAuvYw0ADxaHEvyc0/k6BLZ3GI5BOZCguRcd/6uOMx
xkTdVnKvXDbTqeEa8mmaalkpOROeq1Nc6y6mRd0LM190aibiDTZHPqYQtZHt7Eqs
XCHurMygO8J8oeDquompTSvEbPCRcnlPt87O7TB7iUKBsUKt2cMBwVgsZt4x1HPA
eXBTBQgpzTmd+YFdE8Xl21B89jOcK4rBbJ+GMtgwIFOyv6Cas2lLG565cdV/wxBK
V6efngR0r+2T5p7QwKlDP4DLWYgRUUJkvOR6bQ==
-----END CERTIFICATE-----
